; Function Attrs: nounwind uwtable
define internal fastcc void @freesubre(ptr noundef captures(address_is_null) %0, ptr noundef %1) unnamed_addr #0 {
  %3 = icmp eq ptr %1, null
  br i1 %3, label %freesrnode.exit, label %4

4:                                                ; preds = %2
  %5 = getelementptr inbounds nuw i8, ptr %1, i64 24
  %6 = load ptr, ptr %5, align 8
  %.not = icmp eq ptr %6, null
  br i1 %.not, label %freesubreandsiblings.exit, label %.preheader

.preheader:                                       ; preds = %4, %.preheader
  %.0.i8 = phi ptr [ %8, %.preheader ], [ %6, %4 ]
  %7 = getelementptr inbounds nuw i8, ptr %.0.i8, i64 32
  %8 = load ptr, ptr %7, align 8
  tail call fastcc void @freesubre(ptr noundef %0, ptr noundef nonnull %.0.i8)
  %.not.i = icmp eq ptr %8, null
  br i1 %.not.i, label %freesubreandsiblings.exit, label %.preheader, !llvm.loop !24

freesubreandsiblings.exit:                        ; preds = %.preheader, %4
  %9 = getelementptr inbounds nuw i8, ptr %1, i64 56
  %10 = load i32, ptr %9, align 8
  %11 = icmp eq i32 %10, 0
  br i1 %11, label %19, label %12

12:                                               ; preds = %freesubreandsiblings.exit
  %13 = getelementptr inbounds nuw i8, ptr %1, i64 88
  %14 = load ptr, ptr %13, align 8
  tail call void @pfree(ptr noundef %14) #20
  %15 = getelementptr inbounds nuw i8, ptr %1, i64 96
  %16 = load ptr, ptr %15, align 8
  tail call void @pfree(ptr noundef %16) #20
  %17 = getelementptr inbounds nuw i8, ptr %1, i64 104
  %18 = load ptr, ptr %17, align 8
  tail call void @pfree(ptr noundef %18) #20
  store i32 0, ptr %9, align 8
  br label %19

19:                                               ; preds = %12, %freesubreandsiblings.exit
  %20 = getelementptr inbounds nuw i8, ptr %1, i64 1
  store i8 0, ptr %20, align 1
  %.not.i7 = icmp eq ptr %0, null
  tail call void @llvm.memset.p0.i64(ptr noundef nonnull align 8 dereferenceable(32) %5, i8 0, i64 32, i1 false)
  br i1 %.not.i7, label %27, label %21

21:                                               ; preds = %19
  %22 = getelementptr inbounds nuw i8, ptr %0, i64 192
  %23 = load ptr, ptr %22, align 8
  %.not16.i = icmp eq ptr %23, null
  br i1 %.not16.i, label %27, label %24

24:                                               ; preds = %21
  %25 = getelementptr inbounds nuw i8, ptr %0, i64 200
  %26 = load ptr, ptr %25, align 8
  store ptr %26, ptr %5, align 8
  store ptr %1, ptr %25, align 8
  br label %freesrnode.exit

27:                                               ; preds = %21, %19
  tail call void @pfree(ptr noundef nonnull %1) #20
  br label %freesrnode.exit

freesrnode.exit:                                  ; preds = %27, %24, %2
  ret void
}